target datalayout = "e-m:e-p270:32:32-p271:32:32-p272:64:64-i64:64-i128:128-f80:128-n8:16:32:64-S128"
target triple = "x86_64-pc-linux-gnu"

%struct.IDAMemRec = type { double, ptr, ptr, i32, double, double, ptr, i32, ptr, ptr, i32, ptr, ptr, i32, i32, double, double, ptr, i32, i32, i32, ptr, ptr, i32, ptr, ptr, ptr, i32, double, i32, i32, double, ptr, ptr, i32, ptr, ptr, i32, i32, i32, double, ptr, ptr, [6 x ptr], [6 x double], [6 x double], [6 x double], [6 x double], [6 x double], ptr, ptr, ptr, ptr, ptr, ptr, ptr, ptr, ptr, ptr, ptr, ptr, ptr, ptr, ptr, [6 x ptr], ptr, ptr, ptr, ptr, [6 x ptr], ptr, ptr, ptr, ptr, ptr, ptr, ptr, ptr, ptr, ptr, ptr, ptr, ptr, ptr, [6 x ptr], ptr, ptr, ptr, ptr, ptr, double, ptr, ptr, i32, i32, i32, i32, i32, i32, i32, double, double, double, i32, double, i32, i32, i32, i32, double, double, double, double, double, double, double, double, double, double, double, double, double, double, i32, i32, i32, i32, i32, i64, double, i32, i64, i64, i64, i64, i64, i64, i64, i64, i64, i64, i64, i64, i64, i64, i64, i64, i64, i64, i64, i64, i64, i64, i64, i64, ptr, ptr, ptr, i32, i32, i32, i32, i32, i32, i32, i32, i32, i32, i32, i32, i32, ptr, ptr, ptr, ptr, ptr, ptr, i32, i32, i32, i32, i32, i32, double, double, double, ptr, i32, ptr, ptr, double, double, double, ptr, ptr, ptr, double, double, i32, i32, i64, ptr, i32, i32, ptr, i32 }
%struct.IDAadjMemRec = type { double, double, i32, i32, double, ptr, i32, ptr, i32, ptr, ptr, i32, i64, ptr, i64, i32, ptr, ptr, ptr, ptr, i32, i32, i32, i32, i32, [6 x ptr], [6 x ptr], [6 x double], ptr, ptr, ptr, ptr, i64 }
%struct.IDABMemRec = type { i32, double, ptr, i32, i32, ptr, ptr, ptr, ptr, ptr, ptr, ptr, ptr, ptr, double, ptr, ptr, ptr }

@.str = private unnamed_addr constant [5 x i8] c"IDAA\00", align 1
@.str.2 = private unnamed_addr constant [24 x i8] c"ida_mem = NULL illegal.\00", align 1
@.str.7 = private unnamed_addr constant [51 x i8] c"Illegal attempt to call before calling IDAadjInit.\00", align 1
@.str.16 = private unnamed_addr constant [25 x i8] c"Illegal value for which.\00", align 1
@.str.34 = private unnamed_addr constant [8 x i8] c"IDAGetB\00", align 1

; Function Attrs: nounwind uwtable
define i32 @IDAGetB(ptr noundef %0, i32 noundef %1, ptr noundef %2, ptr noundef %3, ptr noundef %4) #0 {
  %6 = alloca i32, align 4
  %7 = alloca ptr, align 8
  %8 = alloca i32, align 4
  %9 = alloca ptr, align 8
  %10 = alloca ptr, align 8
  %11 = alloca ptr, align 8
  %12 = alloca ptr, align 8
  %13 = alloca ptr, align 8
  %14 = alloca ptr, align 8
  %15 = alloca i32, align 4
  store ptr %0, ptr %7, align 8, !tbaa !3
  store i32 %1, ptr %8, align 4, !tbaa !9
  store ptr %2, ptr %9, align 8, !tbaa !140
  store ptr %3, ptr %10, align 8, !tbaa !74
  store ptr %4, ptr %11, align 8, !tbaa !74
  call void @llvm.lifetime.start.p0(i64 8, ptr %12) #6
  call void @llvm.lifetime.start.p0(i64 8, ptr %13) #6
  call void @llvm.lifetime.start.p0(i64 8, ptr %14) #6
  %16 = load ptr, ptr %7, align 8, !tbaa !3
  %17 = icmp eq ptr %16, null
  br i1 %17, label %18, label %19

18:                                               ; preds = %5
  call void (ptr, i32, ptr, ptr, ptr, ...) @IDAProcessError(ptr noundef null, i32 noundef -20, ptr noundef @.str, ptr noundef @.str.34, ptr noundef @.str.2)
  store i32 -20, ptr %6, align 4
  store i32 1, ptr %15, align 4
  br label %69

19:                                               ; preds = %5
  %20 = load ptr, ptr %7, align 8, !tbaa !3
  store ptr %20, ptr %12, align 8, !tbaa !11
  %21 = load ptr, ptr %12, align 8, !tbaa !11
  %22 = getelementptr inbounds nuw %struct.IDAMemRec, ptr %21, i32 0, i32 205
  %23 = load i32, ptr %22, align 8, !tbaa !51
  %24 = icmp eq i32 %23, 0
  br i1 %24, label %25, label %27

25:                                               ; preds = %19
  %26 = load ptr, ptr %12, align 8, !tbaa !11
  call void (ptr, i32, ptr, ptr, ptr, ...) @IDAProcessError(ptr noundef %26, i32 noundef -101, ptr noundef @.str, ptr noundef @.str.34, ptr noundef @.str.7)
  store i32 -101, ptr %6, align 4
  store i32 1, ptr %15, align 4
  br label %69

27:                                               ; preds = %19
  %28 = load ptr, ptr %12, align 8, !tbaa !11
  %29 = getelementptr inbounds nuw %struct.IDAMemRec, ptr %28, i32 0, i32 204
  %30 = load ptr, ptr %29, align 8, !tbaa !15
  store ptr %30, ptr %13, align 8, !tbaa !13
  %31 = load i32, ptr %8, align 4, !tbaa !9
  %32 = load ptr, ptr %13, align 8, !tbaa !13
  %33 = getelementptr inbounds nuw %struct.IDAadjMemRec, ptr %32, i32 0, i32 6
  %34 = load i32, ptr %33, align 8, !tbaa !46
  %35 = icmp sge i32 %31, %34
  br i1 %35, label %36, label %38

36:                                               ; preds = %27
  %37 = load ptr, ptr %12, align 8, !tbaa !11
  call void (ptr, i32, ptr, ptr, ptr, ...) @IDAProcessError(ptr noundef %37, i32 noundef -22, ptr noundef @.str, ptr noundef @.str.34, ptr noundef @.str.16)
  store i32 -22, ptr %6, align 4
  store i32 1, ptr %15, align 4
  br label %69

38:                                               ; preds = %27
  %39 = load ptr, ptr %13, align 8, !tbaa !13
  %40 = getelementptr inbounds nuw %struct.IDAadjMemRec, ptr %39, i32 0, i32 5
  %41 = load ptr, ptr %40, align 8, !tbaa !44
  store ptr %41, ptr %14, align 8, !tbaa !132
  br label %42

42:                                               ; preds = %52, %38
  %43 = load ptr, ptr %14, align 8, !tbaa !132
  %44 = icmp ne ptr %43, null
  br i1 %44, label %45, label %56

45:                                               ; preds = %42
  %46 = load i32, ptr %8, align 4, !tbaa !9
  %47 = load ptr, ptr %14, align 8, !tbaa !132
  %48 = getelementptr inbounds nuw %struct.IDABMemRec, ptr %47, i32 0, i32 0
  %49 = load i32, ptr %48, align 8, !tbaa !192
  %50 = icmp eq i32 %46, %49
  br i1 %50, label %51, label %52

51:                                               ; preds = %45
  br label %56

52:                                               ; preds = %45
  %53 = load ptr, ptr %14, align 8, !tbaa !132
  %54 = getelementptr inbounds nuw %struct.IDABMemRec, ptr %53, i32 0, i32 17
  %55 = load ptr, ptr %54, align 8, !tbaa !133
  store ptr %55, ptr %14, align 8, !tbaa !132
  br label %42, !llvm.loop !223

56:                                               ; preds = %51, %42
  %57 = load ptr, ptr %14, align 8, !tbaa !132
  %58 = getelementptr inbounds nuw %struct.IDABMemRec, ptr %57, i32 0, i32 15
  %59 = load ptr, ptr %58, align 8, !tbaa !138
  %60 = load ptr, ptr %10, align 8, !tbaa !74
  call void @N_VScale(double noundef 1.000000e+00, ptr noundef %59, ptr noundef %60)
  %61 = load ptr, ptr %14, align 8, !tbaa !132
  %62 = getelementptr inbounds nuw %struct.IDABMemRec, ptr %61, i32 0, i32 16
  %63 = load ptr, ptr %62, align 8, !tbaa !139
  %64 = load ptr, ptr %11, align 8, !tbaa !74
  call void @N_VScale(double noundef 1.000000e+00, ptr noundef %63, ptr noundef %64)
  %65 = load ptr, ptr %14, align 8, !tbaa !132
  %66 = getelementptr inbounds nuw %struct.IDABMemRec, ptr %65, i32 0, i32 14
  %67 = load double, ptr %66, align 8, !tbaa !219
  %68 = load ptr, ptr %9, align 8, !tbaa !140
  store double %67, ptr %68, align 8, !tbaa !73
  store i32 0, ptr %6, align 4
  store i32 1, ptr %15, align 4
  br label %69

69:                                               ; preds = %56, %36, %25, %18
  call void @llvm.lifetime.end.p0(i64 8, ptr %14) #6
  call void @llvm.lifetime.end.p0(i64 8, ptr %13) #6
  call void @llvm.lifetime.end.p0(i64 8, ptr %12) #6
  %70 = load i32, ptr %6, align 4
  ret i32 %70
}