; Function Attrs: nounwind uwtable
define range(i32 -101, 1) i32 @IDAGetB(ptr noundef %0, i32 noundef %1, ptr noundef writeonly captures(none) %2, ptr noundef %3, ptr noundef %4) local_unnamed_addr #0 {
  %6 = icmp eq ptr %0, null
  br i1 %6, label %7, label %8

7:                                                ; preds = %5
  tail call void (ptr, i32, ptr, ptr, ptr, ...) @IDAProcessError(ptr noundef null, i32 noundef -20, ptr noundef nonnull @.str, ptr noundef nonnull @.str.34, ptr noundef nonnull @.str.2) #9
  br label %30

8:                                                ; preds = %5
  %9 = getelementptr inbounds nuw i8, ptr %0, i64 1824
  %10 = load i32, ptr %9, align 8, !tbaa !46
  %11 = icmp eq i32 %10, 0
  br i1 %11, label %12, label %13

12:                                               ; preds = %8
  tail call void (ptr, i32, ptr, ptr, ptr, ...) @IDAProcessError(ptr noundef nonnull %0, i32 noundef -101, ptr noundef nonnull @.str, ptr noundef nonnull @.str.34, ptr noundef nonnull @.str.7) #9
  br label %30

13:                                               ; preds = %8
  %14 = getelementptr inbounds nuw i8, ptr %0, i64 1816
  %15 = load ptr, ptr %14, align 8, !tbaa !3
  %16 = getelementptr inbounds nuw i8, ptr %15, i64 40
  %17 = load i32, ptr %16, align 8, !tbaa !41
  %.not = icmp slt i32 %1, %17
  br i1 %.not, label %19, label %18

18:                                               ; preds = %13
  tail call void (ptr, i32, ptr, ptr, ptr, ...) @IDAProcessError(ptr noundef nonnull %0, i32 noundef -22, ptr noundef nonnull @.str, ptr noundef nonnull @.str.34, ptr noundef nonnull @.str.16) #9
  br label %30

19:                                               ; preds = %13
  %20 = getelementptr inbounds nuw i8, ptr %15, i64 32
  br label %.lr.ph

.lr.ph:                                           ; preds = %.lr.ph, %19
  %.0.sink.in = phi ptr [ %23, %.lr.ph ], [ %20, %19 ]
  %.0.sink = load ptr, ptr %.0.sink.in, align 8, !tbaa !122, !nonnull !181, !noundef !181
  %21 = load i32, ptr %.0.sink, align 8, !tbaa !180
  %22 = icmp eq i32 %1, %21
  %23 = getelementptr inbounds nuw i8, ptr %.0.sink, i64 128
  br i1 %22, label %._crit_edge, label %.lr.ph

._crit_edge:                                      ; preds = %.lr.ph
  %24 = getelementptr inbounds nuw i8, ptr %.0.sink, i64 112
  %25 = load ptr, ptr %24, align 8, !tbaa !127
  tail call void @N_VScale(double noundef 1.000000e+00, ptr noundef %25, ptr noundef %3) #9
  %26 = getelementptr inbounds nuw i8, ptr %.0.sink, i64 120
  %27 = load ptr, ptr %26, align 8, !tbaa !128
  tail call void @N_VScale(double noundef 1.000000e+00, ptr noundef %27, ptr noundef %4) #9
  %28 = getelementptr inbounds nuw i8, ptr %.0.sink, i64 104
  %29 = load double, ptr %28, align 8, !tbaa !195
  store double %29, ptr %2, align 8, !tbaa !77
  br label %30

30:                                               ; preds = %._crit_edge, %18, %12, %7
  %.019 = phi i32 [ -20, %7 ], [ -101, %12 ], [ -22, %18 ], [ 0, %._crit_edge ]
  ret i32 %.019
}